(dp0
S'pyunit_pubdev_2223.py'
p1
(lp2
S'_train: Dropping constant columns: C21, C29'
p3
asS'pyunit_benign_glm_grid.py'
p4
(lp5
S"Grid search: construction of model parameters failed! Exception: java.lang.IllegalArgumentException: Cannot set field 'alpha'"
p6
asS'pyunit_col_sample_per_tree_RF.py'
p7
(lp8
S'_train: Dropping constant columns: C21, C29'
p9
asS'general'
p10
(lp11
S'Reproducibility enforced - using only 1 thread - can be slow.'
p12
aS'_train: Dropping constant columns: C21, C29'
p13
as.